; Function Attrs: nounwind sspstrong uwtable
define internal fastcc i64 @str2big_normal(i32 noundef range(i32 0, 2) %0, ptr noundef readonly captures(address) %1, ptr noundef readnone captures(address) %2, i64 noundef %3, i32 noundef %4) unnamed_addr #0 {
  %6 = alloca [6 x i64], align 16
  %7 = alloca i64, align 8
  %8 = load i64, ptr @rb_cInteger, align 8, !tbaa !7
  %9 = tail call align 8 ptr @llvm.threadlocal.address.p0(ptr align 8 @ruby_current_ec)
  %10 = load ptr, ptr %9, align 8, !tbaa !14
  %11 = tail call i64 @rb_wb_protected_newobj_of(ptr noundef %10, i64 noundef %8, i64 noundef 10, i64 noundef 40) #27
  %12 = inttoptr i64 %11 to ptr
  %.not.i = icmp eq i32 %0, 0
  %13 = load i64, ptr %12, align 8, !tbaa !11
  %14 = and i64 %13, -8193
  %masksel.i.i = select i1 %.not.i, i64 0, i64 8192
  %.sink.i.i = or disjoint i64 %14, %masksel.i.i
  store i64 %.sink.i.i, ptr %12, align 8, !tbaa !11
  %15 = icmp ult i64 %3, 7
  br i1 %15, label %16, label %29

16:                                               ; preds = %5
  %17 = and i64 %.sink.i.i, -245761
  %18 = shl nuw nsw i64 %3, 15
  %19 = or disjoint i64 %17, %18
  %20 = or disjoint i64 %19, 16384
  store i64 %20, ptr %12, align 8, !tbaa !11
  call void @llvm.lifetime.start.p0(i64 48, ptr nonnull %6) #27
  call void @llvm.lifetime.start.p0(i64 8, ptr nonnull %7)
  store volatile i64 1296236545, ptr %6, align 16, !tbaa !7
  %21 = getelementptr inbounds nuw i8, ptr %12, i64 16
  %22 = ptrtoint ptr %21 to i64
  %23 = getelementptr inbounds nuw i8, ptr %6, i64 8
  store volatile i64 %22, ptr %23, align 8, !tbaa !7
  %24 = getelementptr inbounds nuw i8, ptr %6, i64 16
  store volatile i64 24, ptr %24, align 16, !tbaa !7
  %25 = getelementptr inbounds nuw i8, ptr %6, i64 24
  store volatile i64 0, ptr %25, align 8, !tbaa !7
  %26 = getelementptr inbounds nuw i8, ptr %6, i64 32
  store volatile i64 0, ptr %26, align 16, !tbaa !7
  %27 = getelementptr inbounds nuw i8, ptr %6, i64 40
  store volatile i64 0, ptr %27, align 8, !tbaa !7
  %28 = call i64 asm sideeffect "rolq $$3,  %rdi ; rolq $$13, %rdi\0A\09rolq $$61, %rdi ; rolq $$51, %rdi\0A\09xchgq %rbx,%rbx", "={dx},{ax},0,~{cc},~{memory},~{dirflag},~{fpsr},~{flags}"(ptr nonnull %6, i64 0) #27, !srcloc !17
  store volatile i64 %28, ptr %7, align 8, !tbaa !7
  %.0..0..0..0..0..0..i = load volatile i64, ptr %7, align 8, !tbaa !7
  call void @llvm.lifetime.end.p0(i64 8, ptr nonnull %7)
  call void @llvm.lifetime.end.p0(i64 48, ptr nonnull %6) #27
  br label %bignew_1.exit

29:                                               ; preds = %5
  %30 = tail call noalias nonnull ptr @ruby_xmalloc2(i64 noundef %3, i64 noundef 4) #28
  %31 = getelementptr inbounds nuw i8, ptr %12, i64 16
  %32 = getelementptr inbounds nuw i8, ptr %12, i64 24
  store ptr %30, ptr %32, align 8, !tbaa !13
  store i64 %3, ptr %31, align 8, !tbaa !13
  br label %bignew_1.exit

bignew_1.exit:                                    ; preds = %16, %29
  call void @rb_obj_freeze_inline(i64 noundef %11) #27
  %33 = load i64, ptr %12, align 8, !tbaa !11
  %34 = and i64 %33, 16384
  %.not.i35 = icmp eq i64 %34, 0
  br i1 %.not.i35, label %37, label %35

35:                                               ; preds = %bignew_1.exit
  %36 = getelementptr inbounds nuw i8, ptr %12, i64 16
  br label %BIGNUM_DIGITS.exit

37:                                               ; preds = %bignew_1.exit
  %38 = getelementptr inbounds nuw i8, ptr %12, i64 24
  %39 = load ptr, ptr %38, align 8, !tbaa !13
  br label %BIGNUM_DIGITS.exit

BIGNUM_DIGITS.exit:                               ; preds = %35, %37
  %.0.i = phi ptr [ %36, %35 ], [ %39, %37 ]
  %.not36 = icmp eq i64 %3, 0
  br i1 %.not36, label %.preheader, label %.lr.ph.preheader

.lr.ph.preheader:                                 ; preds = %BIGNUM_DIGITS.exit
  %40 = shl nuw i64 %3, 2
  call void @llvm.memset.p0.i64(ptr align 4 %.0.i, i8 0, i64 %40, i1 false), !tbaa !18
  br label %.preheader

.preheader:                                       ; preds = %.lr.ph.preheader, %BIGNUM_DIGITS.exit
  %41 = icmp ult ptr %1, %2
  br i1 %41, label %.lr.ph45, label %._crit_edge46

.lr.ph45:                                         ; preds = %.preheader
  %42 = sext i32 %4 to i64
  br label %43

43:                                               ; preds = %.lr.ph45, %.loopexit
  %.02744 = phi i64 [ 1, %.lr.ph45 ], [ %.1, %.loopexit ]
  %.03043 = phi ptr [ %1, %.lr.ph45 ], [ %63, %.loopexit ]
  %44 = load i8, ptr %.03043, align 1, !tbaa !13
  %45 = zext i8 %44 to i64
  %46 = getelementptr [0 x i8], ptr @ruby_digit36_to_number_table, i64 0, i64 %45
  %47 = load i8, ptr %46, align 1, !tbaa !13
  %48 = icmp slt i8 %47, 0
  br i1 %48, label %.loopexit, label %49

49:                                               ; preds = %43
  %50 = zext nneg i8 %47 to i64
  br label %51

51:                                               ; preds = %._crit_edge, %49
  %.031 = phi i64 [ 0, %49 ], [ %.132.lcssa, %._crit_edge ]
  %.028 = phi i64 [ %50, %49 ], [ %.129.lcssa, %._crit_edge ]
  %.2 = phi i64 [ %.02744, %49 ], [ %62, %._crit_edge ]
  %52 = icmp ult i64 %.031, %.2
  br i1 %52, label %.lr.ph41, label %._crit_edge

.lr.ph41:                                         ; preds = %51, %.lr.ph41
  %.12940 = phi i64 [ %60, %.lr.ph41 ], [ %.028, %51 ]
  %.13239 = phi i64 [ %59, %.lr.ph41 ], [ %.031, %51 ]
  %53 = getelementptr i32, ptr %.0.i, i64 %.13239
  %54 = load i32, ptr %53, align 4, !tbaa !18
  %55 = zext i32 %54 to i64
  %56 = mul nsw i64 %55, %42
  %57 = add nsw i64 %56, %.12940
  %58 = trunc i64 %57 to i32
  %59 = add nuw i64 %.13239, 1
  store i32 %58, ptr %53, align 4, !tbaa !18
  %60 = lshr i64 %57, 32
  %61 = icmp ult i64 %59, %.2
  br i1 %61, label %.lr.ph41, label %._crit_edge, !llvm.loop !119

._crit_edge:                                      ; preds = %.lr.ph41, %51
  %.132.lcssa = phi i64 [ %.031, %51 ], [ %59, %.lr.ph41 ]
  %.129.lcssa = phi i64 [ %.028, %51 ], [ %60, %.lr.ph41 ]
  %.not34 = icmp eq i64 %.129.lcssa, 0
  %62 = add i64 %.2, 1
  br i1 %.not34, label %.loopexit, label %51

.loopexit:                                        ; preds = %._crit_edge, %43
  %.1 = phi i64 [ %.02744, %43 ], [ %.2, %._crit_edge ]
  %63 = getelementptr i8, ptr %.03043, i64 1
  %exitcond.not = icmp eq ptr %63, %2
  br i1 %exitcond.not, label %._crit_edge46, label %43, !llvm.loop !120

._crit_edge46:                                    ; preds = %.loopexit, %.preheader
  ret i64 %11
}